(lp0
(dp1
(I3
I0
I2
tp2
F0.6857142857142857
s(I4
I2
I-4
tp3
F0.15
s(I1
I0
I-3
tp4
F1.0
s(I3
I0
I-2
tp5
F0.0
s(I3
I0
I3
tp6
F0.6111111111111112
s(I1
I0
I0
tp7
F1.0
s(I3
I0
I4
tp8
F0.8888888888888888
s(I1
I0
I1
tp9
F0.8
s(I4
I0
I3
tp10
F0.35294117647058826
s(I4
I0
I4
tp11
F0.0
s(I4
I0
I2
tp12
F0.0
s(I4
I1
I-4
tp13
F0.0
s(I4
I0
I1
tp14
F0.0
s(I2
I0
I4
tp15
F1.0
s(I1
I0
I3
tp16
F1.0
s(I2
I0
I-1
tp17
F1.0
s(I4
I1
I4
tp18
F0.0
s(I2
I0
I-3
tp19
F1.0
s(I3
I1
I3
tp20
F0.7272727272727273
s(I2
I0
I-4
tp21
F0.9
s(I2
I0
I0
tp22
F1.0
s(I3
I1
I-3
tp23
F0.5
s(I1
I2
I1
tp24
F1.0
s(I3
I2
I-3
tp25
F0.8
s(I2
I0
I3
tp26
F0.9545454545454546
s(I2
I0
I1
tp27
F0.9444444444444444
s(I2
I0
I-2
tp28
F1.0
s(I2
I0
I2
tp29
F0.7777777777777778
s(I2
I1
I2
tp30
F0.8461538461538461
s(I3
I2
I3
tp31
F0.7142857142857143
s(I4
I2
I4
tp32
F0.0
s(I1
I1
I1
tp33
F1.0
s(I4
I0
I-2
tp34
F0.5
s(I2
I2
I2
tp35
F0.88
s(I4
I0
I-3
tp36
F0.09523809523809523
s(I4
I0
I-4
tp37
F0.14285714285714285
s(I2
I1
I-2
tp38
F1.0
s(I1
I0
I-2
tp39
F1.0
s(I3
I0
I0
tp40
F0.5454545454545454
s(I3
I0
I-4
tp41
F0.7272727272727273
s(I3
I0
I1
tp42
F0.5714285714285714
s(I1
I0
I2
tp43
F1.0
s(I1
I0
I-4
tp44
F1.0
s(I3
I0
I-3
tp45
F0.0
sa(dp46
(I3
I0
I2
tp47
F0.2608695652173913
s(I4
I2
I-4
tp48
F0.0
s(I1
I0
I-3
tp49
F1.0
s(I3
I0
I-2
tp50
F0.0
s(I3
I0
I3
tp51
F0.25
s(I1
I0
I0
tp52
F1.0
s(I1
I0
I1
tp53
F1.0
s(I4
I0
I3
tp54
F0.05555555555555555
s(I2
I2
I-2
tp55
F0.0
s(I4
I0
I2
tp56
F0.14285714285714285
s(I4
I1
I-4
tp57
F0.05555555555555555
s(I4
I0
I1
tp58
F0.0
s(I2
I0
I4
tp59
F1.0
s(I4
I1
I4
tp60
F0.0
s(I2
I0
I-3
tp61
F0.7083333333333334
s(I2
I0
I1
tp62
F0.8235294117647058
s(I2
I0
I-4
tp63
F0.7619047619047619
s(I1
I2
I-1
tp64
F1.0
s(I2
I0
I0
tp65
F0.6666666666666666
s(I3
I1
I-3
tp66
F0.18181818181818182
s(I1
I2
I1
tp67
F1.0
s(I2
I0
I2
tp68
F0.875
s(I2
I0
I3
tp69
F0.8333333333333334
s(I3
I1
I3
tp70
F0.4
s(I2
I0
I-2
tp71
F0.8
s(I3
I2
I-3
tp72
F0.35714285714285715
s(I2
I1
I2
tp73
F0.7692307692307693
s(I3
I2
I3
tp74
F0.5
s(I4
I2
I4
tp75
F0.0
s(I1
I1
I1
tp76
F0.9642857142857143
s(I4
I0
I-2
tp77
F0.0
s(I2
I2
I2
tp78
F0.9090909090909091
s(I4
I0
I-3
tp79
F0.03333333333333333
s(I3
I0
I-1
tp80
F0.0
s(I4
I0
I-4
tp81
F0.0
s(I2
I1
I-2
tp82
F1.0
s(I1
I0
I-2
tp83
F1.0
s(I3
I0
I0
tp84
F0.7142857142857143
s(I3
I0
I-4
tp85
F0.2777777777777778
s(I3
I0
I1
tp86
F0.32142857142857145
s(I1
I0
I2
tp87
F0.975609756097561
s(I1
I0
I-4
tp88
F1.0
s(I3
I0
I-3
tp89
F0.46153846153846156
sa(dp90
(I3
I0
I2
tp91
F0.6774193548387096
s(I1
I0
I3
tp92
F1.0
s(I1
I0
I-3
tp93
F1.0
s(I3
I0
I-1
tp94
F0.0
s(I3
I0
I3
tp95
F0.6
s(I1
I0
I0
tp96
F1.0
s(I3
I0
I4
tp97
F0.6428571428571429
s(I1
I0
I1
tp98
F1.0
s(I4
I0
I3
tp99
F0.5454545454545454
s(I2
I2
I-2
tp100
F0.0
s(I4
I0
I2
tp101
F0.5
s(I4
I1
I-4
tp102
F0.2
s(I4
I0
I1
tp103
F1.0
s(I2
I0
I4
tp104
F0.8
s(I1
I0
I4
tp105
F1.0
s(I2
I0
I-3
tp106
F0.875
s(I4
I1
I4
tp107
F0.6
s(I2
I0
I1
tp108
F1.0
s(I2
I0
I-4
tp109
F1.0
s(I2
I0
I0
tp110
F1.0
s(I3
I1
I-3
tp111
F1.0
s(I1
I2
I1
tp112
F0.9230769230769231
s(I4
I0
I4
tp113
F1.0
s(I2
I0
I3
tp114
F1.0
s(I3
I1
I3
tp115
F0.5555555555555556
s(I2
I0
I-2
tp116
F1.0
s(I2
I0
I2
tp117
F0.8888888888888888
s(I2
I1
I2
tp118
F0.8181818181818182
s(I3
I2
I3
tp119
F0.5
s(I4
I2
I4
tp120
F0.6
s(I1
I1
I1
tp121
F1.0
s(I2
I2
I2
tp122
F1.0
s(I4
I0
I-3
tp123
F0.47058823529411764
s(I4
I0
I-4
tp124
F0.6
s(I1
I0
I-2
tp125
F1.0
s(I3
I0
I0
tp126
F0.4
s(I4
I2
I-4
tp127
F0.6666666666666666
s(I3
I0
I-4
tp128
F0.4444444444444444
s(I3
I0
I1
tp129
F0.6
s(I1
I0
I2
tp130
F1.0
s(I1
I0
I-4
tp131
F1.0
s(I3
I0
I-3
tp132
F0.4
sa.